target datalayout = "e-m:e-p270:32:32-p271:32:32-p272:64:64-i64:64-i128:128-f80:128-n8:16:32:64-S128"
target triple = "x86_64-pc-linux-gnu"

%struct.ZSTD_customMem = type { ptr, ptr, ptr }
%struct.ZSTD_frameParameters = type { i32, i32, i32 }
%struct.ZSTD_compressionParameters = type { i32, i32, i32, i32, i32, i32, i32 }
%struct.ZSTD_CCtx_s = type { i32, i32, i32, %struct.ZSTD_CCtx_params_s, %struct.ZSTD_CCtx_params_s, %struct.ZSTD_CCtx_params_s, i32, i64, %struct.ZSTD_cwksp, i64, i64, i64, i64, %struct.XXH64_state_s, %struct.ZSTD_customMem, ptr, i64, %struct.SeqCollector, i32, i32, %struct.seqStore_t, %struct.ldmState_t, ptr, i64, %struct.rawSeqStore_t, %struct.ZSTD_blockState_t, ptr, i32, ptr, i64, i64, i64, i64, ptr, i64, i64, i64, i32, i32, %struct.ZSTD_inBuffer_s, i64, i64, %struct.ZSTD_localDict, ptr, %struct.ZSTD_prefixDict_s, i64, %struct.ZSTD_blockSplitCtx, %struct.ZSTD_externalMatchCtx }
%struct.ZSTD_CCtx_params_s = type { i32, %struct.ZSTD_compressionParameters, %struct.ZSTD_frameParameters, i32, i32, i64, i32, i32, i32, i32, i64, i32, i32, %struct.ldmParams_t, i32, i32, i32, i32, i32, i32, i32, i32, %struct.ZSTD_customMem, i32, i32, i32, i64, i32 }
%struct.ldmParams_t = type { i32, i32, i32, i32, i32, i32 }
%struct.ZSTD_cwksp = type { ptr, ptr, ptr, ptr, ptr, ptr, ptr, i8, i32, i32, i32 }
%struct.XXH64_state_s = type { i64, [4 x i64], [4 x i64], i32, i32, i64 }
%struct.SeqCollector = type { i32, ptr, i64, i64 }
%struct.seqStore_t = type { ptr, ptr, ptr, ptr, ptr, ptr, ptr, i64, i64, i32, i32 }
%struct.ldmState_t = type { %struct.ZSTD_window_t, ptr, i32, ptr, [64 x i64], [64 x %struct.ldmMatchCandidate_t] }
%struct.ZSTD_window_t = type { ptr, ptr, ptr, i32, i32, i32 }
%struct.ldmMatchCandidate_t = type { ptr, i32, i32, ptr }
%struct.rawSeqStore_t = type { ptr, i64, i64, i64, i64 }
%struct.ZSTD_blockState_t = type { ptr, ptr, %struct.ZSTD_matchState_t }
%struct.ZSTD_matchState_t = type { %struct.ZSTD_window_t, i32, i32, i32, i32, ptr, [8 x i32], i64, i32, ptr, ptr, ptr, i32, i32, %struct.optState_t, ptr, %struct.ZSTD_compressionParameters, ptr, i32, i32 }
%struct.optState_t = type { ptr, ptr, ptr, ptr, ptr, ptr, i32, i32, i32, i32, i32, i32, i32, i32, i32, ptr, i32 }
%struct.ZSTD_inBuffer_s = type { ptr, i64, i64 }
%struct.ZSTD_localDict = type { ptr, ptr, i64, i32, ptr }
%struct.ZSTD_prefixDict_s = type { ptr, i64, i32 }
%struct.ZSTD_blockSplitCtx = type { %struct.seqStore_t, %struct.seqStore_t, %struct.seqStore_t, %struct.seqStore_t, %struct.seqStore_t, [196 x i32], %struct.ZSTD_entropyCTablesMetadata_t }
%struct.ZSTD_entropyCTablesMetadata_t = type { %struct.ZSTD_hufCTablesMetadata_t, %struct.ZSTD_fseCTablesMetadata_t }
%struct.ZSTD_hufCTablesMetadata_t = type { i32, [128 x i8], i64 }
%struct.ZSTD_fseCTablesMetadata_t = type { i32, i32, i32, [133 x i8], i64, i64 }
%struct.ZSTD_externalMatchCtx = type { ptr, ptr, ptr, i64 }
%struct.ZSTD_compressedBlockState_t = type { %struct.ZSTD_entropyCTables_t, [3 x i32] }
%struct.ZSTD_entropyCTables_t = type { %struct.ZSTD_hufCTables_t, %struct.ZSTD_fseCTables_t }
%struct.ZSTD_hufCTables_t = type { [257 x i64], i32 }
%struct.ZSTD_fseCTables_t = type { [193 x i32], [363 x i32], [329 x i32], i32, i32, i32 }
%struct.ZSTD_CDict_s = type { ptr, i64, i32, ptr, %struct.ZSTD_cwksp, %struct.ZSTD_matchState_t, %struct.ZSTD_compressedBlockState_t, %struct.ZSTD_customMem, i32, i32, i32 }

; Function Attrs: nounwind uwtable
define internal void @ZSTD_cwksp_free(ptr noundef %0, ptr noundef byval(%struct.ZSTD_customMem) align 8 %1) #0 {
  %3 = alloca ptr, align 8
  %4 = alloca ptr, align 8
  store ptr %0, ptr %3, align 8
  %5 = load ptr, ptr %3, align 8
  %6 = getelementptr inbounds %struct.ZSTD_cwksp, ptr %5, i32 0, i32 0
  %7 = load ptr, ptr %6, align 8
  store ptr %7, ptr %4, align 8
  %8 = load ptr, ptr %3, align 8
  call void @llvm.memset.p0.i64(ptr align 8 %8, i8 0, i64 72, i1 false)
  %9 = load ptr, ptr %4, align 8
  call void @ZSTD_customFree(ptr noundef %9, ptr noundef byval(%struct.ZSTD_customMem) align 8 %1)
  ret void
}

; Function Attrs: nounwind uwtable
define internal i32 @ZSTD_cwksp_owns_buffer(ptr noundef %0, ptr noundef %1) #0 {
  %3 = alloca ptr, align 8
  %4 = alloca ptr, align 8
  store ptr %0, ptr %3, align 8
  store ptr %1, ptr %4, align 8
  %5 = load ptr, ptr %4, align 8
  %6 = icmp ne ptr %5, null
  br i1 %6, label %7, label %19

7:                                                ; preds = %2
  %8 = load ptr, ptr %3, align 8
  %9 = getelementptr inbounds %struct.ZSTD_cwksp, ptr %8, i32 0, i32 0
  %10 = load ptr, ptr %9, align 8
  %11 = load ptr, ptr %4, align 8
  %12 = icmp ule ptr %10, %11
  br i1 %12, label %13, label %19

13:                                               ; preds = %7
  %14 = load ptr, ptr %4, align 8
  %15 = load ptr, ptr %3, align 8
  %16 = getelementptr inbounds %struct.ZSTD_cwksp, ptr %15, i32 0, i32 1
  %17 = load ptr, ptr %16, align 8
  %18 = icmp ult ptr %14, %17
  br label %19

19:                                               ; preds = %13, %7, %2
  %20 = phi i1 [ false, %7 ], [ false, %2 ], [ %18, %13 ]
  %21 = zext i1 %20 to i32
  ret i32 %21
}

; Function Attrs: nounwind uwtable
define dso_local i64 @ZSTD_freeCDict(ptr noundef %0) #0 {
  %2 = alloca i64, align 8
  %3 = alloca ptr, align 8
  %4 = alloca %struct.ZSTD_customMem, align 8
  %5 = alloca i32, align 4
  store ptr %0, ptr %3, align 8
  %6 = load ptr, ptr %3, align 8
  %7 = icmp eq ptr %6, null
  br i1 %7, label %8, label %9

8:                                                ; preds = %1
  store i64 0, ptr %2, align 8
  br label %23

9:                                                ; preds = %1
  %10 = load ptr, ptr %3, align 8
  %11 = getelementptr inbounds %struct.ZSTD_CDict_s, ptr %10, i32 0, i32 7
  call void @llvm.memcpy.p0.p0.i64(ptr align 8 %4, ptr align 8 %11, i64 24, i1 false)
  %12 = load ptr, ptr %3, align 8
  %13 = getelementptr inbounds %struct.ZSTD_CDict_s, ptr %12, i32 0, i32 4
  %14 = load ptr, ptr %3, align 8
  %15 = call i32 @ZSTD_cwksp_owns_buffer(ptr noundef %13, ptr noundef %14)
  store i32 %15, ptr %5, align 4
  %16 = load ptr, ptr %3, align 8
  %17 = getelementptr inbounds %struct.ZSTD_CDict_s, ptr %16, i32 0, i32 4
  call void @ZSTD_cwksp_free(ptr noundef %17, ptr noundef byval(%struct.ZSTD_customMem) align 8 %4)
  %18 = load i32, ptr %5, align 4
  %19 = icmp ne i32 %18, 0
  br i1 %19, label %22, label %20

20:                                               ; preds = %9
  %21 = load ptr, ptr %3, align 8
  call void @ZSTD_customFree(ptr noundef %21, ptr noundef byval(%struct.ZSTD_customMem) align 8 %4)
  br label %22

22:                                               ; preds = %20, %9
  store i64 0, ptr %2, align 8
  br label %23

23:                                               ; preds = %22, %8
  %24 = load i64, ptr %2, align 8
  ret i64 %24
}

; Function Attrs: nounwind uwtable
define internal void @ZSTD_customFree(ptr noundef %0, ptr noundef byval(%struct.ZSTD_customMem) align 8 %1) #0 {
  %3 = alloca ptr, align 8
  store ptr %0, ptr %3, align 8
  %4 = load ptr, ptr %3, align 8
  %5 = icmp ne ptr %4, null
  br i1 %5, label %6, label %19

6:                                                ; preds = %2
  %7 = getelementptr inbounds %struct.ZSTD_customMem, ptr %1, i32 0, i32 1
  %8 = load ptr, ptr %7, align 8
  %9 = icmp ne ptr %8, null
  br i1 %9, label %10, label %16

10:                                               ; preds = %6
  %11 = getelementptr inbounds %struct.ZSTD_customMem, ptr %1, i32 0, i32 1
  %12 = load ptr, ptr %11, align 8
  %13 = getelementptr inbounds %struct.ZSTD_customMem, ptr %1, i32 0, i32 2
  %14 = load ptr, ptr %13, align 8
  %15 = load ptr, ptr %3, align 8
  call void %12(ptr noundef %14, ptr noundef %15)
  br label %18

16:                                               ; preds = %6
  %17 = load ptr, ptr %3, align 8
  call void @free(ptr noundef %17) #11
  br label %18

18:                                               ; preds = %16, %10
  br label %19

19:                                               ; preds = %18, %2
  ret void
}

; Function Attrs: nounwind uwtable
define internal void @ZSTD_clearAllDicts(ptr noundef %0) #0 {
  %2 = alloca ptr, align 8
  store ptr %0, ptr %2, align 8
  %3 = load ptr, ptr %2, align 8
  %4 = getelementptr inbounds %struct.ZSTD_CCtx_s, ptr %3, i32 0, i32 42
  %5 = getelementptr inbounds %struct.ZSTD_localDict, ptr %4, i32 0, i32 0
  %6 = load ptr, ptr %5, align 8
  %7 = load ptr, ptr %2, align 8
  %8 = getelementptr inbounds %struct.ZSTD_CCtx_s, ptr %7, i32 0, i32 14
  call void @ZSTD_customFree(ptr noundef %6, ptr noundef byval(%struct.ZSTD_customMem) align 8 %8)
  %9 = load ptr, ptr %2, align 8
  %10 = getelementptr inbounds %struct.ZSTD_CCtx_s, ptr %9, i32 0, i32 42
  %11 = getelementptr inbounds %struct.ZSTD_localDict, ptr %10, i32 0, i32 4
  %12 = load ptr, ptr %11, align 8
  %13 = call i64 @ZSTD_freeCDict(ptr noundef %12)
  %14 = load ptr, ptr %2, align 8
  %15 = getelementptr inbounds %struct.ZSTD_CCtx_s, ptr %14, i32 0, i32 42
  call void @llvm.memset.p0.i64(ptr align 8 %15, i8 0, i64 40, i1 false)
  %16 = load ptr, ptr %2, align 8
  %17 = getelementptr inbounds %struct.ZSTD_CCtx_s, ptr %16, i32 0, i32 44
  call void @llvm.memset.p0.i64(ptr align 8 %17, i8 0, i64 24, i1 false)
  %18 = load ptr, ptr %2, align 8
  %19 = getelementptr inbounds %struct.ZSTD_CCtx_s, ptr %18, i32 0, i32 43
  store ptr null, ptr %19, align 8
  ret void
}