; Function Attrs: nounwind uwtable
define internal fastcc void @ZSTD_clearAllDicts(ptr noundef captures(none) initializes((3640, 3664), (3672, 3704)) %0) unnamed_addr #1 {
  %2 = getelementptr inbounds nuw i8, ptr %0, i64 3632
  %3 = load ptr, ptr %2, align 8
  %4 = getelementptr i8, ptr %0, i64 856
  %.val = load ptr, ptr %4, align 8
  %5 = getelementptr i8, ptr %0, i64 864
  %.val6 = load ptr, ptr %5, align 8
  %.not.i = icmp eq ptr %3, null
  br i1 %.not.i, label %ZSTD_customFree.exit, label %6

6:                                                ; preds = %1
  %.not4.i = icmp eq ptr %.val, null
  br i1 %.not4.i, label %8, label %7

7:                                                ; preds = %6
  tail call void %.val(ptr noundef %.val6, ptr noundef nonnull %3) #27
  br label %ZSTD_customFree.exit

8:                                                ; preds = %6
  tail call void @free(ptr noundef nonnull %3) #27
  br label %ZSTD_customFree.exit

ZSTD_customFree.exit:                             ; preds = %1, %7, %8
  %9 = getelementptr inbounds nuw i8, ptr %0, i64 3664
  %10 = load ptr, ptr %9, align 8
  %11 = icmp eq ptr %10, null
  br i1 %11, label %ZSTD_freeCDict.exit, label %12

12:                                               ; preds = %ZSTD_customFree.exit
  %.sroa.1.0..sroa_idx.i = getelementptr inbounds nuw i8, ptr %10, i64 6048
  %.sroa.1.0.copyload.i = load ptr, ptr %.sroa.1.0..sroa_idx.i, align 8
  %.sroa.3.0..sroa_idx.i = getelementptr inbounds nuw i8, ptr %10, i64 6056
  %.sroa.3.0.copyload.i = load ptr, ptr %.sroa.3.0..sroa_idx.i, align 8
  %13 = getelementptr inbounds nuw i8, ptr %10, i64 32
  %14 = load ptr, ptr %13, align 8
  %.not.i.i = icmp ugt ptr %14, %10
  br i1 %.not.i.i, label %ZSTD_cwksp_owns_buffer.exit.i, label %15

15:                                               ; preds = %12
  %16 = getelementptr inbounds nuw i8, ptr %10, i64 40
  %17 = load ptr, ptr %16, align 8
  %18 = icmp uge ptr %10, %17
  br label %ZSTD_cwksp_owns_buffer.exit.i

ZSTD_cwksp_owns_buffer.exit.i:                    ; preds = %15, %12
  %.not.i7 = phi i1 [ true, %12 ], [ %18, %15 ]
  tail call void @llvm.memset.p0.i64(ptr noundef nonnull align 8 dereferenceable(72) %13, i8 0, i64 72, i1 false)
  %.not.i.i.i = icmp eq ptr %14, null
  br i1 %.not.i.i.i, label %ZSTD_cwksp_free.exit.i, label %19

19:                                               ; preds = %ZSTD_cwksp_owns_buffer.exit.i
  %.not4.i.i.i = icmp eq ptr %.sroa.1.0.copyload.i, null
  br i1 %.not4.i.i.i, label %ZSTD_cwksp_free.exit.thread.i, label %20

20:                                               ; preds = %19
  tail call void %.sroa.1.0.copyload.i(ptr noundef %.sroa.3.0.copyload.i, ptr noundef nonnull %14) #27
  br label %ZSTD_cwksp_free.exit.i

ZSTD_cwksp_free.exit.i:                           ; preds = %20, %ZSTD_cwksp_owns_buffer.exit.i
  br i1 %.not.i7, label %21, label %ZSTD_freeCDict.exit

ZSTD_cwksp_free.exit.thread.i:                    ; preds = %19
  tail call void @free(ptr noundef nonnull %14) #27
  br i1 %.not.i7, label %.thread.i, label %ZSTD_freeCDict.exit

21:                                               ; preds = %ZSTD_cwksp_free.exit.i
  %.not4.i.i = icmp eq ptr %.sroa.1.0.copyload.i, null
  br i1 %.not4.i.i, label %.thread.i, label %22

22:                                               ; preds = %21
  tail call void %.sroa.1.0.copyload.i(ptr noundef %.sroa.3.0.copyload.i, ptr noundef nonnull %10) #27
  br label %ZSTD_freeCDict.exit

.thread.i:                                        ; preds = %21, %ZSTD_cwksp_free.exit.thread.i
  tail call void @free(ptr noundef nonnull %10) #27
  br label %ZSTD_freeCDict.exit

ZSTD_freeCDict.exit:                              ; preds = %ZSTD_customFree.exit, %ZSTD_cwksp_free.exit.i, %ZSTD_cwksp_free.exit.thread.i, %22, %.thread.i
  tail call void @llvm.memset.p0.i64(ptr noundef nonnull align 8 dereferenceable(72) %2, i8 0, i64 72, i1 false)
  ret void
}